target datalayout = "e-m:e-p270:32:32-p271:32:32-p272:64:64-i64:64-i128:128-f80:128-n8:16:32:64-S128"
target triple = "x86_64-pc-linux-gnu"

%"struct.Luau::NegationType" = type { ptr }
%"struct.Luau::Type" = type { %"class.Luau::Variant.92", i8, [7 x i8], %"class.std::optional.1", ptr }
%"class.Luau::Variant.92" = type { i32, [4 x i8], [336 x i8] }
%"class.std::optional.1" = type { %"struct.std::_Optional_base.2" }
%"struct.std::_Optional_base.2" = type { %"struct.std::_Optional_payload.4" }
%"struct.std::_Optional_payload.4" = type { %"struct.std::_Optional_payload.base.11", [7 x i8] }
%"struct.std::_Optional_payload.base.11" = type { %"struct.std::_Optional_payload_base.base.10" }
%"struct.std::_Optional_payload_base.base.10" = type <{ %"union.std::_Optional_payload_base<std::__cxx11::basic_string<char>>::_Storage", i8 }>
%"union.std::_Optional_payload_base<std::__cxx11::basic_string<char>>::_Storage" = type { %"class.std::__cxx11::basic_string" }
%"class.std::__cxx11::basic_string" = type { %"struct.std::__cxx11::basic_string<char>::_Alloc_hider", i64, %union.anon }
%"struct.std::__cxx11::basic_string<char>::_Alloc_hider" = type { ptr }
%union.anon = type { i64, [8 x i8] }
%"struct.Luau::TypeSimplifier" = type <{ %"struct.Luau::NotNull.56", %"struct.Luau::NotNull.57", %"class.Luau::DenseHashSet.58", i32, [4 x i8] }>
%"struct.Luau::NotNull.56" = type { ptr }
%"struct.Luau::NotNull.57" = type { ptr }
%"class.Luau::DenseHashSet.58" = type { %"class.Luau::detail::DenseHashTable.59" }
%"class.Luau::detail::DenseHashTable.59" = type <{ ptr, i64, i64, ptr, [8 x i8] }>
%"struct.Luau::BuiltinTypes" = type { %"class.std::unique_ptr", i8, ptr, ptr, ptr, ptr, ptr, ptr, ptr, ptr, ptr, ptr, ptr, ptr, ptr, ptr, ptr, ptr, ptr, ptr, ptr, ptr, ptr, ptr, ptr, ptr, ptr, ptr, ptr }
%"class.std::unique_ptr" = type { %"struct.std::__uniq_ptr_data" }
%"struct.std::__uniq_ptr_data" = type { %"class.std::__uniq_ptr_impl" }
%"class.std::__uniq_ptr_impl" = type { %"class.std::tuple" }
%"class.std::tuple" = type { %"struct.std::_Tuple_impl" }
%"struct.std::_Tuple_impl" = type { %"struct.std::_Head_base.62" }
%"struct.std::_Head_base.62" = type { ptr }

; Function Attrs: mustprogress nounwind uwtable
define linkonce_odr dso_local noundef ptr @_ZNK4Luau7VariantIJNS_9Unifiable5BoundIPKNS_4TypeEEENS1_5ErrorIS5_EENS_8FreeTypeENS_11GenericTypeENS_13PrimitiveTypeENS_13SingletonTypeENS_11BlockedTypeENS_20PendingExpansionTypeENS_12FunctionTypeENS_9TableTypeENS_13MetatableTypeENS_9ClassTypeENS_7AnyTypeENS_9UnionTypeENS_16IntersectionTypeENS_8LazyTypeENS_11UnknownTypeENS_9NeverTypeENS_12NegationTypeENS_12NoRefineTypeENS_24TypeFunctionInstanceTypeEEE6get_ifISP_EEPKT_v(ptr noundef nonnull align 8 dereferenceable(344) %0) #2 comdat align 2 {
  %2 = alloca ptr, align 8
  %3 = alloca i32, align 4
  store ptr %0, ptr %2, align 8, !tbaa !315
  %4 = load ptr, ptr %2, align 8
  call void @llvm.lifetime.start.p0(i64 4, ptr %3) #19
  store i32 18, ptr %3, align 4, !tbaa !4
  %5 = getelementptr inbounds nuw %"class.Luau::Variant.92", ptr %4, i32 0, i32 0
  %6 = load i32, ptr %5, align 8, !tbaa !317
  %7 = icmp eq i32 18, %6
  br i1 %7, label %8, label %10

8:                                                ; preds = %1
  %9 = getelementptr inbounds nuw %"class.Luau::Variant.92", ptr %4, i32 0, i32 2
  br label %11

10:                                               ; preds = %1
  br label %11

11:                                               ; preds = %10, %8
  %12 = phi ptr [ %9, %8 ], [ null, %10 ]
  call void @llvm.lifetime.end.p0(i64 4, ptr %3) #19
  ret ptr %12
}

; Function Attrs: mustprogress uwtable
define linkonce_odr dso_local noundef ptr @_ZN4Luau6get_ifINS_12NegationTypeEJNS_9Unifiable5BoundIPKNS_4TypeEEENS2_5ErrorIS6_EENS_8FreeTypeENS_11GenericTypeENS_13PrimitiveTypeENS_13SingletonTypeENS_11BlockedTypeENS_20PendingExpansionTypeENS_12FunctionTypeENS_9TableTypeENS_13MetatableTypeENS_9ClassTypeENS_7AnyTypeENS_9UnionTypeENS_16IntersectionTypeENS_8LazyTypeENS_11UnknownTypeENS_9NeverTypeES1_NS_12NoRefineTypeENS_24TypeFunctionInstanceTypeEEEEPKT_PKNS_7VariantIJDpT0_EEE(ptr noundef %0) #3 comdat {
  %2 = alloca ptr, align 8
  store ptr %0, ptr %2, align 8, !tbaa !315
  %3 = load ptr, ptr %2, align 8, !tbaa !315
  %4 = icmp ne ptr %3, null
  br i1 %4, label %5, label %8

5:                                                ; preds = %1
  %6 = load ptr, ptr %2, align 8, !tbaa !315
  %7 = call noundef ptr @_ZNK4Luau7VariantIJNS_9Unifiable5BoundIPKNS_4TypeEEENS1_5ErrorIS5_EENS_8FreeTypeENS_11GenericTypeENS_13PrimitiveTypeENS_13SingletonTypeENS_11BlockedTypeENS_20PendingExpansionTypeENS_12FunctionTypeENS_9TableTypeENS_13MetatableTypeENS_9ClassTypeENS_7AnyTypeENS_9UnionTypeENS_16IntersectionTypeENS_8LazyTypeENS_11UnknownTypeENS_9NeverTypeENS_12NegationTypeENS_12NoRefineTypeENS_24TypeFunctionInstanceTypeEEE6get_ifISP_EEPKT_v(ptr noundef nonnull align 8 dereferenceable(344) %6)
  br label %9

8:                                                ; preds = %1
  br label %9

9:                                                ; preds = %8, %5
  %10 = phi ptr [ %7, %5 ], [ null, %8 ]
  ret ptr %10
}

; Function Attrs: mustprogress nounwind uwtable
define linkonce_odr dso_local noundef ptr @_ZNK4Luau7NotNullINS_9TypeArenaEEptEv(ptr noundef nonnull align 8 dereferenceable(8) %0) #2 comdat align 2 {
  %2 = alloca ptr, align 8
  store ptr %0, ptr %2, align 8, !tbaa !152
  %3 = load ptr, ptr %2, align 8
  %4 = getelementptr inbounds nuw %"struct.Luau::NotNull.57", ptr %3, i32 0, i32 0
  %5 = load ptr, ptr %4, align 8, !tbaa !154
  ret ptr %5
}

; Function Attrs: mustprogress uwtable
define linkonce_odr dso_local noundef ptr @_ZN4Luau3getINS_12NegationTypeEEEPKT_PKNS_4TypeE(ptr noundef %0) #3 comdat {
  %2 = alloca ptr, align 8
  store ptr %0, ptr %2, align 8, !tbaa !29
  %3 = load ptr, ptr %2, align 8, !tbaa !29
  %4 = getelementptr inbounds nuw %"struct.Luau::Type", ptr %3, i32 0, i32 0
  %5 = call noundef ptr @_ZN4Luau6get_ifINS_12NegationTypeEJNS_9Unifiable5BoundIPKNS_4TypeEEENS2_5ErrorIS6_EENS_8FreeTypeENS_11GenericTypeENS_13PrimitiveTypeENS_13SingletonTypeENS_11BlockedTypeENS_20PendingExpansionTypeENS_12FunctionTypeENS_9TableTypeENS_13MetatableTypeENS_9ClassTypeENS_7AnyTypeENS_9UnionTypeENS_16IntersectionTypeENS_8LazyTypeENS_11UnknownTypeENS_9NeverTypeES1_NS_12NoRefineTypeENS_24TypeFunctionInstanceTypeEEEEPKT_PKNS_7VariantIJDpT0_EEE(ptr noundef %4)
  ret ptr %5
}

; Function Attrs: mustprogress nounwind uwtable
define linkonce_odr dso_local noundef ptr @_ZNK4Luau7NotNullINS_12BuiltinTypesEEptEv(ptr noundef nonnull align 8 dereferenceable(8) %0) #2 comdat align 2 {
  %2 = alloca ptr, align 8
  store ptr %0, ptr %2, align 8, !tbaa !147
  %3 = load ptr, ptr %2, align 8
  %4 = getelementptr inbounds nuw %"struct.Luau::NotNull.56", ptr %3, i32 0, i32 0
  %5 = load ptr, ptr %4, align 8, !tbaa !149
  ret ptr %5
}

; Function Attrs: mustprogress uwtable
define dso_local noundef ptr @_ZNK4Luau14TypeSimplifier10mkNegationEPKNS_4TypeE(ptr noundef nonnull align 8 dereferenceable(60) %0, ptr noundef %1) #3 align 2 {
  %3 = alloca ptr, align 8
  %4 = alloca ptr, align 8
  %5 = alloca ptr, align 8
  %6 = alloca ptr, align 8
  %7 = alloca %"struct.Luau::NegationType", align 8
  store ptr %0, ptr %3, align 8, !tbaa !134
  store ptr %1, ptr %4, align 8, !tbaa !29
  %8 = load ptr, ptr %3, align 8
  call void @llvm.lifetime.start.p0(i64 8, ptr %5) #19
  store ptr null, ptr %5, align 8, !tbaa !29
  %9 = load ptr, ptr %4, align 8, !tbaa !29
  %10 = getelementptr inbounds nuw %"struct.Luau::TypeSimplifier", ptr %8, i32 0, i32 0
  %11 = call noundef ptr @_ZNK4Luau7NotNullINS_12BuiltinTypesEEptEv(ptr noundef nonnull align 8 dereferenceable(8) %10) #19
  %12 = getelementptr inbounds nuw %"struct.Luau::BuiltinTypes", ptr %11, i32 0, i32 20
  %13 = load ptr, ptr %12, align 8, !tbaa !136
  %14 = icmp eq ptr %9, %13
  br i1 %14, label %15, label %20

15:                                               ; preds = %2
  %16 = getelementptr inbounds nuw %"struct.Luau::TypeSimplifier", ptr %8, i32 0, i32 0
  %17 = call noundef ptr @_ZNK4Luau7NotNullINS_12BuiltinTypesEEptEv(ptr noundef nonnull align 8 dereferenceable(8) %16) #19
  %18 = getelementptr inbounds nuw %"struct.Luau::BuiltinTypes", ptr %17, i32 0, i32 19
  %19 = load ptr, ptr %18, align 8, !tbaa !146
  store ptr %19, ptr %5, align 8, !tbaa !29
  br label %52

20:                                               ; preds = %2
  %21 = load ptr, ptr %4, align 8, !tbaa !29
  %22 = getelementptr inbounds nuw %"struct.Luau::TypeSimplifier", ptr %8, i32 0, i32 0
  %23 = call noundef ptr @_ZNK4Luau7NotNullINS_12BuiltinTypesEEptEv(ptr noundef nonnull align 8 dereferenceable(8) %22) #19
  %24 = getelementptr inbounds nuw %"struct.Luau::BuiltinTypes", ptr %23, i32 0, i32 19
  %25 = load ptr, ptr %24, align 8, !tbaa !146
  %26 = icmp eq ptr %21, %25
  br i1 %26, label %27, label %32

27:                                               ; preds = %20
  %28 = getelementptr inbounds nuw %"struct.Luau::TypeSimplifier", ptr %8, i32 0, i32 0
  %29 = call noundef ptr @_ZNK4Luau7NotNullINS_12BuiltinTypesEEptEv(ptr noundef nonnull align 8 dereferenceable(8) %28) #19
  %30 = getelementptr inbounds nuw %"struct.Luau::BuiltinTypes", ptr %29, i32 0, i32 20
  %31 = load ptr, ptr %30, align 8, !tbaa !136
  store ptr %31, ptr %5, align 8, !tbaa !29
  br label %51

32:                                               ; preds = %20
  call void @llvm.lifetime.start.p0(i64 8, ptr %6) #19
  %33 = load ptr, ptr %4, align 8, !tbaa !29
  %34 = call noundef ptr @_ZN4Luau3getINS_12NegationTypeEEEPKT_PKNS_4TypeE(ptr noundef %33)
  store ptr %34, ptr %6, align 8, !tbaa !31
  %35 = load ptr, ptr %6, align 8, !tbaa !31
  %36 = icmp ne ptr %35, null
  br i1 %36, label %37, label %42

37:                                               ; preds = %32
  %38 = load ptr, ptr %6, align 8, !tbaa !31
  %39 = getelementptr inbounds nuw %"struct.Luau::NegationType", ptr %38, i32 0, i32 0
  %40 = load ptr, ptr %39, align 8, !tbaa !33
  %41 = call noundef ptr @_ZN4Luau6followEPKNS_4TypeE(ptr noundef %40)
  store ptr %41, ptr %5, align 8, !tbaa !29
  br label %50

42:                                               ; preds = %32
  %43 = getelementptr inbounds nuw %"struct.Luau::TypeSimplifier", ptr %8, i32 0, i32 1
  %44 = call noundef ptr @_ZNK4Luau7NotNullINS_9TypeArenaEEptEv(ptr noundef nonnull align 8 dereferenceable(8) %43) #19
  %45 = getelementptr inbounds nuw %"struct.Luau::NegationType", ptr %7, i32 0, i32 0
  %46 = load ptr, ptr %4, align 8, !tbaa !29
  store ptr %46, ptr %45, align 8, !tbaa !33
  %47 = getelementptr inbounds nuw %"struct.Luau::NegationType", ptr %7, i32 0, i32 0
  %48 = load ptr, ptr %47, align 8
  %49 = call noundef ptr @_ZN4Luau9TypeArena7addTypeINS_12NegationTypeEEEPKNS_4TypeET_(ptr noundef nonnull align 8 dereferenceable(88) %44, ptr %48)
  store ptr %49, ptr %5, align 8, !tbaa !29
  br label %50

50:                                               ; preds = %42, %37
  call void @llvm.lifetime.end.p0(i64 8, ptr %6) #19
  br label %51

51:                                               ; preds = %50, %27
  br label %52

52:                                               ; preds = %51, %15
  %53 = load ptr, ptr %5, align 8, !tbaa !29
  call void @llvm.lifetime.end.p0(i64 8, ptr %5) #19
  ret ptr %53
}