; Function Attrs: mustprogress uwtable
define dso_local noundef ptr @_ZNK4Luau14TypeSimplifier10mkNegationEPKNS_4TypeE(ptr noundef nonnull readonly align 8 captures(none) dereferenceable(60) %0, ptr noundef %1) local_unnamed_addr #2 align 2 {
  %3 = load ptr, ptr %0, align 8, !tbaa !106
  %4 = getelementptr inbounds nuw i8, ptr %3, i64 160
  %5 = load ptr, ptr %4, align 8, !tbaa !109
  %6 = icmp eq ptr %1, %5
  %7 = getelementptr inbounds nuw i8, ptr %3, i64 152
  %8 = load ptr, ptr %7, align 8, !tbaa !119
  br i1 %6, label %22, label %9

9:                                                ; preds = %2
  %10 = icmp eq ptr %1, %8
  br i1 %10, label %22, label %11

11:                                               ; preds = %9
  %.not.i.i = icmp eq ptr %1, null
  br i1 %.not.i.i, label %18, label %12

12:                                               ; preds = %11
  %13 = load i32, ptr %1, align 8, !tbaa !8
  %14 = icmp eq i32 %13, 18
  br i1 %14, label %_ZN4Luau3getINS_12NegationTypeEEEPKT_PKNS_4TypeE.exit, label %18

_ZN4Luau3getINS_12NegationTypeEEEPKT_PKNS_4TypeE.exit: ; preds = %12
  %15 = getelementptr inbounds nuw i8, ptr %1, i64 8
  %16 = load ptr, ptr %15, align 8, !tbaa !10
  %17 = tail call noundef ptr @_ZN4Luau6followEPKNS_4TypeE(ptr noundef %16)
  br label %22

18:                                               ; preds = %12, %11
  %19 = getelementptr inbounds nuw i8, ptr %0, i64 8
  %20 = load ptr, ptr %19, align 8, !tbaa !120
  %21 = tail call noundef ptr @_ZN4Luau9TypeArena7addTypeINS_12NegationTypeEEEPKNS_4TypeET_(ptr noundef nonnull align 8 dereferenceable(88) %20, ptr %1)
  br label %22

22:                                               ; preds = %2, %9, %_ZN4Luau3getINS_12NegationTypeEEEPKT_PKNS_4TypeE.exit, %18
  %.0 = phi ptr [ %17, %_ZN4Luau3getINS_12NegationTypeEEEPKT_PKNS_4TypeE.exit ], [ %21, %18 ], [ %5, %9 ], [ %8, %2 ]
  ret ptr %.0
}